; Function Attrs: mustprogress uwtable
define void @_ZN4lean16compacted_regionC2EmPvS1_bSt8functionIFvvEE(ptr noundef nonnull align 8 dereferenceable(72) initializes((0, 9), (16, 48)) %0, i64 noundef %1, ptr noundef %2, ptr noundef %3, i1 noundef zeroext %4, ptr noundef %5) unnamed_addr #0 align 2 personality ptr @__gxx_personality_v0 {
  %7 = zext i1 %4 to i8
  store ptr %3, ptr %0, align 8, !tbaa !96
  %8 = getelementptr inbounds nuw i8, ptr %0, i64 8
  store i8 %7, ptr %8, align 8, !tbaa !101
  %9 = getelementptr inbounds nuw i8, ptr %0, i64 16
  %10 = getelementptr inbounds nuw i8, ptr %0, i64 32
  %11 = getelementptr inbounds nuw i8, ptr %0, i64 40
  %12 = getelementptr inbounds nuw i8, ptr %5, i64 16
  tail call void @llvm.memset.p0.i64(ptr noundef nonnull align 8 dereferenceable(32) %9, i8 0, i64 32, i1 false)
  %13 = load ptr, ptr %12, align 8, !tbaa !102
  %.not.i.i.not.i = icmp eq ptr %13, null
  br i1 %.not.i.i.not.i, label %_ZNSt8functionIFvvEEC2ERKS1_.exit, label %14

14:                                               ; preds = %6
  %15 = invoke noundef zeroext i1 %13(ptr noundef nonnull align 8 dereferenceable(32) %9, ptr noundef nonnull align 8 dereferenceable(32) %5, i32 noundef 2)
          to label %16 unwind label %20

16:                                               ; preds = %14
  %17 = getelementptr inbounds nuw i8, ptr %5, i64 24
  %18 = load ptr, ptr %17, align 8, !tbaa !103
  store ptr %18, ptr %11, align 8, !tbaa !103
  %19 = load ptr, ptr %12, align 8, !tbaa !102
  store ptr %19, ptr %10, align 8, !tbaa !102
  br label %_ZNSt8functionIFvvEEC2ERKS1_.exit

20:                                               ; preds = %14
  %21 = landingpad { ptr, i32 }
          cleanup
  %22 = load ptr, ptr %10, align 8, !tbaa !102
  %.not.i.i = icmp eq ptr %22, null
  br i1 %.not.i.i, label %_ZNSt14_Function_baseD2Ev.exit.i, label %23

23:                                               ; preds = %20
  %24 = invoke noundef zeroext i1 %22(ptr noundef nonnull align 8 dereferenceable(32) %9, ptr noundef nonnull align 8 dereferenceable(32) %9, i32 noundef 3)
          to label %_ZNSt14_Function_baseD2Ev.exit.i unwind label %25

25:                                               ; preds = %23
  %26 = landingpad { ptr, i32 }
          catch ptr null
  %27 = extractvalue { ptr, i32 } %26, 0
  tail call void @__clang_call_terminate(ptr %27) #26
  unreachable

_ZNSt14_Function_baseD2Ev.exit.i:                 ; preds = %23, %20
  resume { ptr, i32 } %21

_ZNSt8functionIFvvEEC2ERKS1_.exit:                ; preds = %6, %16
  %28 = getelementptr inbounds nuw i8, ptr %0, i64 48
  store ptr %2, ptr %28, align 8, !tbaa !104
  %29 = getelementptr inbounds nuw i8, ptr %0, i64 56
  store ptr %2, ptr %29, align 8, !tbaa !105
  %30 = getelementptr inbounds nuw i8, ptr %0, i64 64
  %31 = getelementptr inbounds nuw i8, ptr %2, i64 %1
  store ptr %31, ptr %30, align 8, !tbaa !106
  ret void
}